; Function Attrs: nounwind uwtable
define dso_local void @uv_pipe_connect(ptr noundef %0, ptr noundef %1, ptr noundef %2, ptr noundef %3) local_unnamed_addr #0 {
  %5 = tail call i64 @strlen(ptr noundef nonnull dereferenceable(1) %2) #13
  %6 = tail call i32 @uv_pipe_connect2(ptr noundef %0, ptr noundef %1, ptr noundef nonnull %2, i64 noundef %5, i32 noundef 0, ptr noundef %3)
  %.not = icmp eq i32 %6, 0
  br i1 %.not, label %22, label %7

7:                                                ; preds = %4
  %8 = getelementptr inbounds nuw i8, ptr %1, i64 232
  store i32 %6, ptr %8, align 8
  %9 = getelementptr inbounds nuw i8, ptr %1, i64 120
  store ptr %0, ptr %9, align 8
  %10 = getelementptr inbounds nuw i8, ptr %0, i64 8
  store i32 2, ptr %10, align 8
  %11 = getelementptr inbounds nuw i8, ptr %1, i64 8
  %12 = load ptr, ptr %11, align 8
  %13 = getelementptr inbounds nuw i8, ptr %12, i64 32
  %14 = load i32, ptr %13, align 8
  %15 = add i32 %14, 1
  store i32 %15, ptr %13, align 8
  %16 = getelementptr inbounds nuw i8, ptr %0, i64 72
  store ptr %1, ptr %16, align 8
  %17 = getelementptr inbounds nuw i8, ptr %0, i64 64
  store ptr %3, ptr %17, align 8
  %18 = getelementptr inbounds nuw i8, ptr %0, i64 80
  store ptr %18, ptr %18, align 8
  %19 = getelementptr inbounds nuw i8, ptr %0, i64 88
  store ptr %18, ptr %19, align 8
  %20 = load ptr, ptr %11, align 8
  %21 = getelementptr inbounds nuw i8, ptr %1, i64 136
  tail call void @uv__io_feed(ptr noundef %20, ptr noundef nonnull %21) #12
  br label %22

22:                                               ; preds = %7, %4
  ret void
}